; Function Attrs: mustprogress uwtable
define noundef zeroext i1 @_ZN3nix11RemoteStore11verifyStoreEbNS_10RepairFlagE(ptr nocapture noundef nonnull readonly align 8 dereferenceable(25) %0, i1 noundef zeroext %1, i1 noundef zeroext %2) unnamed_addr #5 align 2 personality ptr @__gxx_personality_v0 {
  %4 = alloca [8 x i8], align 1
  %5 = alloca [8 x i8], align 1
  %6 = alloca [8 x i8], align 1
  %7 = alloca %"struct.nix::RemoteStore::ConnectionHandle", align 8
  call void @_ZN3nix11RemoteStore13getConnectionEv(ptr dead_on_unwind nonnull writable sret(%"struct.nix::RemoteStore::ConnectionHandle") align 8 %7, ptr noundef nonnull align 8 dereferenceable(25) %0)
  %8 = getelementptr inbounds i8, ptr %7, i64 8
  %9 = load ptr, ptr %8, align 8
  %10 = getelementptr inbounds i8, ptr %9, i64 8
  %11 = load ptr, ptr %10, align 8
  %12 = getelementptr i8, ptr %11, i64 -48
  %13 = load i64, ptr %12, align 8
  %14 = getelementptr inbounds i8, ptr %10, i64 %13
  call void @llvm.lifetime.start.p0(i64 8, ptr nonnull %6)
  store i8 35, ptr %6, align 1
  %15 = getelementptr inbounds i8, ptr %6, i64 1
  call void @llvm.memset.p0.i64(ptr noundef nonnull align 1 dereferenceable(7) %15, i8 0, i64 7, i1 false)
  %16 = load ptr, ptr %14, align 8
  %17 = getelementptr inbounds i8, ptr %16, i64 16
  %18 = load ptr, ptr %17, align 8
  invoke void %18(ptr noundef nonnull align 8 dereferenceable(8) %14, i64 8, ptr nonnull %6)
          to label %19 unwind label %37

19:                                               ; preds = %3
  call void @llvm.lifetime.end.p0(i64 8, ptr nonnull %6)
  call void @llvm.lifetime.start.p0(i64 8, ptr nonnull %5)
  %20 = zext i1 %1 to i8
  store i8 %20, ptr %5, align 1
  %21 = getelementptr inbounds i8, ptr %5, i64 1
  call void @llvm.memset.p0.i64(ptr noundef nonnull align 1 dereferenceable(7) %21, i8 0, i64 7, i1 false)
  %22 = load ptr, ptr %14, align 8
  %23 = getelementptr inbounds i8, ptr %22, i64 16
  %24 = load ptr, ptr %23, align 8
  invoke void %24(ptr noundef nonnull align 8 dereferenceable(8) %14, i64 8, ptr nonnull %5)
          to label %25 unwind label %37

25:                                               ; preds = %19
  call void @llvm.lifetime.end.p0(i64 8, ptr nonnull %5)
  call void @llvm.lifetime.start.p0(i64 8, ptr nonnull %4)
  %26 = zext i1 %2 to i8
  store i8 %26, ptr %4, align 1
  %27 = getelementptr inbounds i8, ptr %4, i64 1
  call void @llvm.memset.p0.i64(ptr noundef nonnull align 1 dereferenceable(7) %27, i8 0, i64 7, i1 false)
  %28 = load ptr, ptr %14, align 8
  %29 = getelementptr inbounds i8, ptr %28, i64 16
  %30 = load ptr, ptr %29, align 8
  invoke void %30(ptr noundef nonnull align 8 dereferenceable(8) %14, i64 8, ptr nonnull %4)
          to label %31 unwind label %37

31:                                               ; preds = %25
  call void @llvm.lifetime.end.p0(i64 8, ptr nonnull %4)
  invoke void @_ZN3nix11RemoteStore16ConnectionHandle13processStderrEPNS_4SinkEPNS_6SourceEb(ptr noundef nonnull align 8 dereferenceable(33) %7, ptr noundef null, ptr noundef null, i1 noundef zeroext true)
          to label %32 unwind label %37

32:                                               ; preds = %31
  %33 = load ptr, ptr %8, align 8
  %34 = getelementptr inbounds i8, ptr %33, i64 64
  %35 = invoke noundef i32 @_ZN3nix7readNumIjEET_RNS_6SourceE(ptr noundef nonnull align 8 dereferenceable(8) %34)
          to label %_ZN3nix7readIntERNS_6SourceE.exit unwind label %37

_ZN3nix7readIntERNS_6SourceE.exit:                ; preds = %32
  %36 = icmp ne i32 %35, 0
  call void @_ZN3nix11RemoteStore16ConnectionHandleD1Ev(ptr noundef nonnull align 8 dereferenceable(33) %7) #29
  ret i1 %36

37:                                               ; preds = %32, %25, %19, %3, %31
  %38 = landingpad { ptr, i32 }
          cleanup
  call void @_ZN3nix11RemoteStore16ConnectionHandleD1Ev(ptr noundef nonnull align 8 dereferenceable(33) %7) #29
  resume { ptr, i32 } %38
}